; ModuleID = '7/884.c'
source_filename = "7/884.c"
target datalayout = "e-m:e-p270:32:32-p271:32:32-p272:64:64-i64:64-f80:128-n8:16:32:64-S128"
target triple = "x86_64-pc-linux-gnu"

@.str = private unnamed_addr constant [3 x i8] c"%s\00", align 1

; Function Attrs: noinline nounwind uwtable
define dso_local i32 @main() #0 {
  %1 = alloca i32, align 4
  %2 = alloca i8*, align 8
  %3 = alloca i8*, align 8
  %4 = alloca i8*, align 8
  %5 = alloca i8*, align 8
  %6 = alloca i8*, align 8
  %7 = alloca i32, align 4
  %8 = alloca i32, align 4
  store i32 0, i32* %1, align 4
  %9 = call noalias i8* @malloc(i64 100) #4
  store i8* %9, i8** %2, align 8
  %10 = call noalias i8* @malloc(i64 100) #4
  store i8* %10, i8** %3, align 8
  %11 = call noalias i8* @malloc(i64 100) #4
  store i8* %11, i8** %4, align 8
  %12 = call noalias i8* @malloc(i64 100) #4
  store i8* %12, i8** %6, align 8
  %13 = load i8*, i8** %2, align 8
  %14 = call i32 (i8*, ...) bitcast (i32 (...)* @gets to i32 (i8*, ...)*)(i8* %13)
  %15 = load i8*, i8** %3, align 8
  %16 = call i32 (i8*, ...) bitcast (i32 (...)* @gets to i32 (i8*, ...)*)(i8* %15)
  %17 = load i8*, i8** %4, align 8
  %18 = call i32 (i8*, ...) bitcast (i32 (...)* @gets to i32 (i8*, ...)*)(i8* %17)
  %19 = load i8*, i8** %2, align 8
  %20 = load i8*, i8** %3, align 8
  %21 = call i8* @strstr(i8* %19, i8* %20) #5
  store i8* %21, i8** %5, align 8
  %22 = load i8*, i8** %5, align 8
  %23 = icmp eq i8* %22, null
  br i1 %23, label %24, label %27

24:                                               ; preds = %0
  %25 = load i8*, i8** %2, align 8
  %26 = call i32 (i8*, ...) @printf(i8* getelementptr inbounds ([3 x i8], [3 x i8]* @.str, i64 0, i64 0), i8* %25)
  br label %118

27:                                               ; preds = %0
  store i32 0, i32* %7, align 4
  br label %28

28:                                               ; preds = %39, %27
  %29 = load i8*, i8** %2, align 8
  %30 = load i8*, i8** %5, align 8
  %31 = icmp ne i8* %29, %30
  br i1 %31, label %32, label %44

32:                                               ; preds = %28
  %33 = load i8*, i8** %2, align 8
  %34 = load i8, i8* %33, align 1
  %35 = load i8*, i8** %6, align 8
  %36 = load i32, i32* %7, align 4
  %37 = sext i32 %36 to i64
  %38 = getelementptr inbounds i8, i8* %35, i64 %37
  store i8 %34, i8* %38, align 1
  br label %39

39:                                               ; preds = %32
  %40 = load i8*, i8** %2, align 8
  %41 = getelementptr inbounds i8, i8* %40, i32 1
  store i8* %41, i8** %2, align 8
  %42 = load i32, i32* %7, align 4
  %43 = add nsw i32 %42, 1
  store i32 %43, i32* %7, align 4
  br label %28

44:                                               ; preds = %28
  %45 = load i8*, i8** %6, align 8
  %46 = load i32, i32* %7, align 4
  %47 = sext i32 %46 to i64
  %48 = getelementptr inbounds i8, i8* %45, i64 %47
  store i8 0, i8* %48, align 1
  store i32 0, i32* %8, align 4
  br label %49

49:                                               ; preds = %68, %44
  %50 = load i32, i32* %8, align 4
  %51 = sext i32 %50 to i64
  %52 = load i8*, i8** %4, align 8
  %53 = call i64 @strlen(i8* %52) #5
  %54 = icmp ult i64 %51, %53
  br i1 %54, label %55, label %71

55:                                               ; preds = %49
  %56 = load i8*, i8** %4, align 8
  %57 = load i32, i32* %8, align 4
  %58 = sext i32 %57 to i64
  %59 = getelementptr inbounds i8, i8* %56, i64 %58
  %60 = load i8, i8* %59, align 1
  %61 = load i8*, i8** %6, align 8
  %62 = load i32, i32* %7, align 4
  %63 = sext i32 %62 to i64
  %64 = getelementptr inbounds i8, i8* %61, i64 %63
  %65 = load i32, i32* %8, align 4
  %66 = sext i32 %65 to i64
  %67 = getelementptr inbounds i8, i8* %64, i64 %66
  store i8 %60, i8* %67, align 1
  br label %68

68:                                               ; preds = %55
  %69 = load i32, i32* %8, align 4
  %70 = add nsw i32 %69, 1
  store i32 %70, i32* %8, align 4
  br label %49

71:                                               ; preds = %49
  store i32 0, i32* %8, align 4
  br label %72

72:                                               ; preds = %102, %71
  %73 = load i8*, i8** %2, align 8
  %74 = load i8*, i8** %3, align 8
  %75 = call i64 @strlen(i8* %74) #5
  %76 = getelementptr inbounds i8, i8* %73, i64 %75
  %77 = load i32, i32* %8, align 4
  %78 = sext i32 %77 to i64
  %79 = getelementptr inbounds i8, i8* %76, i64 %78
  %80 = load i8, i8* %79, align 1
  %81 = sext i8 %80 to i32
  %82 = icmp ne i32 %81, 0
  br i1 %82, label %83, label %105

83:                                               ; preds = %72
  %84 = load i8*, i8** %2, align 8
  %85 = load i8*, i8** %3, align 8
  %86 = call i64 @strlen(i8* %85) #5
  %87 = getelementptr inbounds i8, i8* %84, i64 %86
  %88 = load i32, i32* %8, align 4
  %89 = sext i32 %88 to i64
  %90 = getelementptr inbounds i8, i8* %87, i64 %89
  %91 = load i8, i8* %90, align 1
  %92 = load i8*, i8** %6, align 8
  %93 = load i32, i32* %7, align 4
  %94 = sext i32 %93 to i64
  %95 = getelementptr inbounds i8, i8* %92, i64 %94
  %96 = load i8*, i8** %4, align 8
  %97 = call i64 @strlen(i8* %96) #5
  %98 = getelementptr inbounds i8, i8* %95, i64 %97
  %99 = load i32, i32* %8, align 4
  %100 = sext i32 %99 to i64
  %101 = getelementptr inbounds i8, i8* %98, i64 %100
  store i8 %91, i8* %101, align 1
  br label %102

102:                                              ; preds = %83
  %103 = load i32, i32* %8, align 4
  %104 = add nsw i32 %103, 1
  store i32 %104, i32* %8, align 4
  br label %72

105:                                              ; preds = %72
  %106 = load i8*, i8** %6, align 8
  %107 = load i32, i32* %7, align 4
  %108 = sext i32 %107 to i64
  %109 = getelementptr inbounds i8, i8* %106, i64 %108
  %110 = load i8*, i8** %4, align 8
  %111 = call i64 @strlen(i8* %110) #5
  %112 = getelementptr inbounds i8, i8* %109, i64 %111
  %113 = load i32, i32* %8, align 4
  %114 = sext i32 %113 to i64
  %115 = getelementptr inbounds i8, i8* %112, i64 %114
  store i8 0, i8* %115, align 1
  %116 = load i8*, i8** %6, align 8
  %117 = call i32 (i8*, ...) @printf(i8* getelementptr inbounds ([3 x i8], [3 x i8]* @.str, i64 0, i64 0), i8* %116)
  br label %118

118:                                              ; preds = %105, %24
  %119 = load i32, i32* %1, align 4
  ret i32 %119
}

; Function Attrs: nounwind
declare dso_local noalias i8* @malloc(i64) #1

declare dso_local i32 @gets(...) #2

; Function Attrs: nounwind readonly
declare dso_local i8* @strstr(i8*, i8*) #3

declare dso_local i32 @printf(i8*, ...) #2

; Function Attrs: nounwind readonly
declare dso_local i64 @strlen(i8*) #3


!llvm.module.flags = !{!0}
!llvm.ident = !{!1}

!0 = !{i32 1, !"wchar_size", i32 4}
!1 = !{!"clang version 10.0.0-4ubuntu1 "}
